ccopy_reg
_reconstructor
p0
(cargparse
Namespace
p1
c__builtin__
object
p2
Ntp3
Rp4
(dp5
S'grad_clip'
p6
F10.0
sS'rnn_size'
p7
I128
sS'embedding_size'
p8
I64
sS'grid_size'
p9
I4
sS'learning_rate'
p10
F0.005
sS'num_layers'
p11
I1
sS'seq_length'
p12
I2
sS'maxNumPeds'
p13
I70
sS'decay_rate'
p14
F0.95
sS'leaveDataset'
p15
I1
sS'lambda_param'
p16
F0.0005
sS'batch_size'
p17
I16
sS'num_epochs'
p18
I50
sS'model'
p19
S'lstm'
p20
sS'save_every'
p21
I400
sS'keep_prob'
p22
F0.8
sS'neighborhood_size'
p23
I32
sb.